target datalayout = "e-m:e-p270:32:32-p271:32:32-p272:64:64-i64:64-i128:128-f80:128-n8:16:32:64-S128"
target triple = "x86_64-pc-linux-gnu"

%struct.ParseState = type { ptr, ptr, i32, i32, ptr, ptr, ptr, ptr, ptr, ptr, i8, ptr, ptr, ptr, ptr, ptr, ptr, i8, ptr, i32, i32, ptr, ptr, i8, i8, ptr, i8, i8, i8, i8, i8, ptr, ptr, ptr, ptr, ptr, ptr }
%struct.ForEachState = type { ptr, i32 }
%struct.List = type { i32, i32, i32, ptr, [0 x %union.ListCell] }
%union.ListCell = type { ptr }
%struct.RangeTblEntry = type { i32, ptr, ptr, i32, i32, i8, i8, i32, i32, ptr, ptr, i8, i32, i32, ptr, ptr, ptr, ptr, ptr, i8, ptr, ptr, ptr, i32, i8, ptr, ptr, ptr, ptr, double, ptr, i8, i8, ptr }
%struct.CommonTableExpr = type { i32, ptr, ptr, i32, ptr, ptr, ptr, i32, i8, i32, ptr, ptr, ptr, ptr }

@.str.1 = private unnamed_addr constant [17 x i8] c"parse_relation.c\00", align 1
@.str.3 = private unnamed_addr constant [26 x i8] c"bad levelsup for CTE \22%s\22\00", align 1
@__func__.GetCTEForRTE = private unnamed_addr constant [13 x i8] c"GetCTEForRTE\00", align 1
@.str.4 = private unnamed_addr constant [24 x i8] c"could not find CTE \22%s\22\00", align 1

; Function Attrs: nounwind uwtable
define dso_local ptr @GetCTEForRTE(ptr noundef %0, ptr noundef %1, i32 noundef %2) #0 {
  %4 = alloca ptr, align 8
  %5 = alloca ptr, align 8
  %6 = alloca ptr, align 8
  %7 = alloca i32, align 4
  %8 = alloca i32, align 4
  %9 = alloca ptr, align 8
  %10 = alloca %struct.ForEachState, align 8
  %11 = alloca i32, align 4
  %12 = alloca ptr, align 8
  store ptr %0, ptr %5, align 8
  store ptr %1, ptr %6, align 8
  store i32 %2, ptr %7, align 4
  call void @llvm.lifetime.start.p0(i64 4, ptr %8) #8
  call void @llvm.lifetime.start.p0(i64 8, ptr %9) #8
  %13 = load ptr, ptr %6, align 8
  %14 = getelementptr inbounds nuw %struct.RangeTblEntry, ptr %13, i32 0, i32 23
  %15 = load i32, ptr %14, align 8
  %16 = load i32, ptr %7, align 4
  %17 = add i32 %15, %16
  store i32 %17, ptr %8, align 4
  br label %18

18:                                               ; preds = %42, %3
  %19 = load i32, ptr %8, align 4
  %20 = add i32 %19, -1
  store i32 %20, ptr %8, align 4
  %21 = icmp ugt i32 %19, 0
  br i1 %21, label %22, label %43

22:                                               ; preds = %18
  %23 = load ptr, ptr %5, align 8
  %24 = getelementptr inbounds nuw %struct.ParseState, ptr %23, i32 0, i32 0
  %25 = load ptr, ptr %24, align 8
  store ptr %25, ptr %5, align 8
  %26 = load ptr, ptr %5, align 8
  %27 = icmp ne ptr %26, null
  br i1 %27, label %42, label %28

28:                                               ; preds = %22
  br label %29

29:                                               ; preds = %28
  br i1 true, label %30, label %32

30:                                               ; preds = %29
  %31 = call zeroext i1 @errstart_cold(i32 noundef 21, ptr noundef null) #9
  br i1 %31, label %34, label %39

32:                                               ; preds = %29
  %33 = call zeroext i1 @errstart(i32 noundef 21, ptr noundef null)
  br i1 %33, label %34, label %39

34:                                               ; preds = %32, %30
  %35 = load ptr, ptr %6, align 8
  %36 = getelementptr inbounds nuw %struct.RangeTblEntry, ptr %35, i32 0, i32 22
  %37 = load ptr, ptr %36, align 8
  %38 = call i32 (ptr, ...) @errmsg_internal(ptr noundef @.str.3, ptr noundef %37)
  call void @errfinish(ptr noundef @.str.1, i32 noundef 576, ptr noundef @__func__.GetCTEForRTE)
  br label %39

39:                                               ; preds = %34, %32, %30
  unreachable

40:                                               ; No predecessors!
  br label %41

41:                                               ; preds = %40
  br label %42

42:                                               ; preds = %41, %22
  br label %18, !llvm.loop !17

43:                                               ; preds = %18
  call void @llvm.lifetime.start.p0(i64 16, ptr %10) #8
  %44 = getelementptr inbounds nuw %struct.ForEachState, ptr %10, i32 0, i32 0
  %45 = load ptr, ptr %5, align 8
  %46 = getelementptr inbounds nuw %struct.ParseState, ptr %45, i32 0, i32 11
  %47 = load ptr, ptr %46, align 8
  store ptr %47, ptr %44, align 8
  %48 = getelementptr inbounds nuw %struct.ForEachState, ptr %10, i32 0, i32 1
  store i32 0, ptr %48, align 8
  %49 = getelementptr i8, ptr %10, i64 12
  call void @llvm.memset.p0.i64(ptr align 4 %49, i8 0, i64 4, i1 false)
  br label %50

50:                                               ; preds = %93, %43
  %51 = getelementptr inbounds nuw %struct.ForEachState, ptr %10, i32 0, i32 0
  %52 = load ptr, ptr %51, align 8
  %53 = icmp ne ptr %52, null
  br i1 %53, label %54, label %71

54:                                               ; preds = %50
  %55 = getelementptr inbounds nuw %struct.ForEachState, ptr %10, i32 0, i32 1
  %56 = load i32, ptr %55, align 8
  %57 = getelementptr inbounds nuw %struct.ForEachState, ptr %10, i32 0, i32 0
  %58 = load ptr, ptr %57, align 8
  %59 = getelementptr inbounds nuw %struct.List, ptr %58, i32 0, i32 1
  %60 = load i32, ptr %59, align 4
  %61 = icmp slt i32 %56, %60
  br i1 %61, label %62, label %71

62:                                               ; preds = %54
  %63 = getelementptr inbounds nuw %struct.ForEachState, ptr %10, i32 0, i32 0
  %64 = load ptr, ptr %63, align 8
  %65 = getelementptr inbounds nuw %struct.List, ptr %64, i32 0, i32 3
  %66 = load ptr, ptr %65, align 8
  %67 = getelementptr inbounds nuw %struct.ForEachState, ptr %10, i32 0, i32 1
  %68 = load i32, ptr %67, align 8
  %69 = sext i32 %68 to i64
  %70 = getelementptr inbounds %union.ListCell, ptr %66, i64 %69
  store ptr %70, ptr %9, align 8
  br label %72

71:                                               ; preds = %54, %50
  store ptr null, ptr %9, align 8
  br label %72

72:                                               ; preds = %71, %62
  %73 = phi i32 [ 1, %62 ], [ 0, %71 ]
  %74 = icmp ne i32 %73, 0
  br i1 %74, label %76, label %75

75:                                               ; preds = %72
  store i32 6, ptr %11, align 4
  br label %97

76:                                               ; preds = %72
  call void @llvm.lifetime.start.p0(i64 8, ptr %12) #8
  %77 = load ptr, ptr %9, align 8
  %78 = load ptr, ptr %77, align 8
  store ptr %78, ptr %12, align 8
  %79 = load ptr, ptr %12, align 8
  %80 = getelementptr inbounds nuw %struct.CommonTableExpr, ptr %79, i32 0, i32 1
  %81 = load ptr, ptr %80, align 8
  %82 = load ptr, ptr %6, align 8
  %83 = getelementptr inbounds nuw %struct.RangeTblEntry, ptr %82, i32 0, i32 22
  %84 = load ptr, ptr %83, align 8
  %85 = call i32 @strcmp(ptr noundef %81, ptr noundef %84) #10
  %86 = icmp eq i32 %85, 0
  br i1 %86, label %87, label %89

87:                                               ; preds = %76
  %88 = load ptr, ptr %12, align 8
  store ptr %88, ptr %4, align 8
  store i32 1, ptr %11, align 4
  br label %90

89:                                               ; preds = %76
  store i32 0, ptr %11, align 4
  br label %90

90:                                               ; preds = %89, %87
  call void @llvm.lifetime.end.p0(i64 8, ptr %12) #8
  %91 = load i32, ptr %11, align 4
  switch i32 %91, label %97 [
    i32 0, label %92
  ]

92:                                               ; preds = %90
  br label %93

93:                                               ; preds = %92
  %94 = getelementptr inbounds nuw %struct.ForEachState, ptr %10, i32 0, i32 1
  %95 = load i32, ptr %94, align 8
  %96 = add i32 %95, 1
  store i32 %96, ptr %94, align 8
  br label %50, !llvm.loop !18

97:                                               ; preds = %90, %75
  call void @llvm.lifetime.end.p0(i64 16, ptr %10) #8
  %98 = load i32, ptr %11, align 4
  switch i32 %98, label %113 [
    i32 6, label %99
  ]

99:                                               ; preds = %97
  br label %100

100:                                              ; preds = %99
  br i1 true, label %101, label %103

101:                                              ; preds = %100
  %102 = call zeroext i1 @errstart_cold(i32 noundef 21, ptr noundef null) #9
  br i1 %102, label %105, label %110

103:                                              ; preds = %100
  %104 = call zeroext i1 @errstart(i32 noundef 21, ptr noundef null)
  br i1 %104, label %105, label %110

105:                                              ; preds = %103, %101
  %106 = load ptr, ptr %6, align 8
  %107 = getelementptr inbounds nuw %struct.RangeTblEntry, ptr %106, i32 0, i32 22
  %108 = load ptr, ptr %107, align 8
  %109 = call i32 (ptr, ...) @errmsg_internal(ptr noundef @.str.4, ptr noundef %108)
  call void @errfinish(ptr noundef @.str.1, i32 noundef 586, ptr noundef @__func__.GetCTEForRTE)
  br label %110

110:                                              ; preds = %105, %103, %101
  unreachable

111:                                              ; No predecessors!
  br label %112

112:                                              ; preds = %111
  store ptr null, ptr %4, align 8
  store i32 1, ptr %11, align 4
  br label %113

113:                                              ; preds = %112, %97
  call void @llvm.lifetime.end.p0(i64 8, ptr %9) #8
  call void @llvm.lifetime.end.p0(i64 4, ptr %8) #8
  %114 = load ptr, ptr %4, align 8
  ret ptr %114
}