; Function Attrs: nounwind uwtable
define dso_local ptr @GetCTEForRTE(ptr noundef readonly captures(none) %0, ptr noundef readonly captures(none) %1, i32 noundef %2) local_unnamed_addr #0 {
  %4 = getelementptr inbounds nuw i8, ptr %1, i64 152
  %5 = load i32, ptr %4, align 8
  %6 = add i32 %5, %2
  br label %7

7:                                                ; preds = %8, %3
  %.022 = phi i32 [ %6, %3 ], [ %9, %8 ]
  %.021 = phi ptr [ %0, %3 ], [ %10, %8 ]
  %.not = icmp eq i32 %.022, 0
  br i1 %.not, label %16, label %8

8:                                                ; preds = %7
  %9 = add i32 %.022, -1
  %10 = load ptr, ptr %.021, align 8
  %.not29 = icmp eq ptr %10, null
  br i1 %.not29, label %11, label %7, !llvm.loop !11

11:                                               ; preds = %8
  %12 = tail call zeroext i1 @errstart_cold(i32 noundef 21, ptr noundef null) #13
  tail call void @llvm.assume(i1 %12)
  %13 = getelementptr inbounds nuw i8, ptr %1, i64 144
  %14 = load ptr, ptr %13, align 8
  %15 = tail call i32 (ptr, ...) @errmsg_internal(ptr noundef nonnull @.str.3, ptr noundef %14) #11
  tail call void @errfinish(ptr noundef nonnull @.str.1, i32 noundef 576, ptr noundef nonnull @__func__.GetCTEForRTE) #11
  unreachable

16:                                               ; preds = %7
  %17 = getelementptr inbounds nuw i8, ptr %.021, i64 80
  %18 = load ptr, ptr %17, align 8
  %.not26 = icmp eq ptr %18, null
  br i1 %.not26, label %._crit_edge, label %.lr.ph

.lr.ph:                                           ; preds = %16
  %19 = getelementptr inbounds nuw i8, ptr %18, i64 4
  %20 = load i32, ptr %19, align 4
  %21 = icmp sgt i32 %20, 0
  br i1 %21, label %.lr.ph40, label %._crit_edge

.lr.ph40:                                         ; preds = %.lr.ph
  %22 = getelementptr inbounds nuw i8, ptr %1, i64 144
  %23 = getelementptr inbounds nuw i8, ptr %18, i64 16
  %24 = load ptr, ptr %23, align 8
  %25 = load ptr, ptr %22, align 8
  %wide.trip.count = zext nneg i32 %20 to i64
  br label %27

26:                                               ; preds = %27
  %indvars.iv.next = add nuw nsw i64 %indvars.iv, 1
  %exitcond.not = icmp eq i64 %indvars.iv.next, %wide.trip.count
  br i1 %exitcond.not, label %._crit_edge, label %27

27:                                               ; preds = %.lr.ph40, %26
  %indvars.iv = phi i64 [ 0, %.lr.ph40 ], [ %indvars.iv.next, %26 ]
  %28 = getelementptr inbounds nuw %union.ListCell, ptr %24, i64 %indvars.iv
  %29 = load ptr, ptr %28, align 8
  %30 = getelementptr inbounds nuw i8, ptr %29, i64 8
  %31 = load ptr, ptr %30, align 8
  %32 = tail call i32 @strcmp(ptr noundef nonnull dereferenceable(1) %31, ptr noundef nonnull dereferenceable(1) %25) #12
  %.not28 = icmp eq i32 %32, 0
  br i1 %.not28, label %.split, label %26

._crit_edge:                                      ; preds = %26, %.lr.ph, %16
  %33 = tail call zeroext i1 @errstart_cold(i32 noundef 21, ptr noundef null) #13
  tail call void @llvm.assume(i1 %33)
  %34 = getelementptr inbounds nuw i8, ptr %1, i64 144
  %35 = load ptr, ptr %34, align 8
  %36 = tail call i32 (ptr, ...) @errmsg_internal(ptr noundef nonnull @.str.4, ptr noundef %35) #11
  tail call void @errfinish(ptr noundef nonnull @.str.1, i32 noundef 586, ptr noundef nonnull @__func__.GetCTEForRTE) #11
  unreachable

.split:                                           ; preds = %27
  ret ptr %29
}